; ModuleID = '29/921.c'
source_filename = "29/921.c"
target datalayout = "e-m:e-p270:32:32-p271:32:32-p272:64:64-i64:64-f80:128-n8:16:32:64-S128"
target triple = "x86_64-pc-linux-gnu"

@.str = private unnamed_addr constant [3 x i8] c"%d\00", align 1
@.str.1 = private unnamed_addr constant [7 x i8] c"%.3lf\0A\00", align 1

; Function Attrs: noinline nounwind uwtable
define dso_local i32 @main() #0 {
  %1 = alloca i32, align 4
  %2 = alloca [1000 x double], align 16
  %3 = alloca double, align 8
  %4 = alloca double, align 8
  %5 = alloca i32, align 4
  %6 = alloca i32, align 4
  %7 = alloca [1000 x i32], align 16
  %8 = alloca i32, align 4
  %9 = alloca i32, align 4
  %10 = alloca i32, align 4
  %11 = alloca i32, align 4
  %12 = alloca i32, align 4
  store i32 0, i32* %1, align 4
  store i32 2, i32* %5, align 4
  store i32 1, i32* %6, align 4
  %13 = load i32, i32* %5, align 4
  %14 = sitofp i32 %13 to double
  %15 = load i32, i32* %6, align 4
  %16 = sitofp i32 %15 to double
  %17 = fdiv double %14, %16
  %18 = getelementptr inbounds [1000 x double], [1000 x double]* %2, i64 0, i64 0
  store double %17, double* %18, align 16
  %19 = call i32 (i8*, ...) @__isoc99_scanf(i8* getelementptr inbounds ([3 x i8], [3 x i8]* @.str, i64 0, i64 0), i32* %11)
  store i32 0, i32* %12, align 4
  br label %20

20:                                               ; preds = %29, %0
  %21 = load i32, i32* %12, align 4
  %22 = load i32, i32* %11, align 4
  %23 = icmp slt i32 %21, %22
  br i1 %23, label %24, label %32

24:                                               ; preds = %20
  %25 = load i32, i32* %12, align 4
  %26 = sext i32 %25 to i64
  %27 = getelementptr inbounds [1000 x i32], [1000 x i32]* %7, i64 0, i64 %26
  %28 = call i32 (i8*, ...) @__isoc99_scanf(i8* getelementptr inbounds ([3 x i8], [3 x i8]* @.str, i64 0, i64 0), i32* %27)
  br label %29

29:                                               ; preds = %24
  %30 = load i32, i32* %12, align 4
  %31 = add nsw i32 %30, 1
  store i32 %31, i32* %12, align 4
  br label %20

32:                                               ; preds = %20
  store i32 0, i32* %12, align 4
  br label %33

33:                                               ; preds = %74, %32
  %34 = load i32, i32* %12, align 4
  %35 = load i32, i32* %11, align 4
  %36 = icmp slt i32 %34, %35
  br i1 %36, label %37, label %77

37:                                               ; preds = %33
  %38 = getelementptr inbounds [1000 x double], [1000 x double]* %2, i64 0, i64 0
  %39 = load double, double* %38, align 16
  store double %39, double* %3, align 8
  store i32 2, i32* %5, align 4
  store i32 1, i32* %6, align 4
  store i32 1, i32* %8, align 4
  br label %40

40:                                               ; preds = %67, %37
  %41 = load i32, i32* %8, align 4
  %42 = load i32, i32* %12, align 4
  %43 = sext i32 %42 to i64
  %44 = getelementptr inbounds [1000 x i32], [1000 x i32]* %7, i64 0, i64 %43
  %45 = load i32, i32* %44, align 4
  %46 = icmp slt i32 %41, %45
  br i1 %46, label %47, label %70

47:                                               ; preds = %40
  %48 = load i32, i32* %5, align 4
  store i32 %48, i32* %9, align 4
  %49 = load i32, i32* %5, align 4
  %50 = load i32, i32* %6, align 4
  %51 = add nsw i32 %49, %50
  store i32 %51, i32* %5, align 4
  %52 = load i32, i32* %9, align 4
  store i32 %52, i32* %6, align 4
  %53 = load i32, i32* %5, align 4
  %54 = sitofp i32 %53 to double
  %55 = load i32, i32* %6, align 4
  %56 = sitofp i32 %55 to double
  %57 = fdiv double %54, %56
  %58 = load i32, i32* %8, align 4
  %59 = sext i32 %58 to i64
  %60 = getelementptr inbounds [1000 x double], [1000 x double]* %2, i64 0, i64 %59
  store double %57, double* %60, align 8
  %61 = load double, double* %3, align 8
  %62 = load i32, i32* %8, align 4
  %63 = sext i32 %62 to i64
  %64 = getelementptr inbounds [1000 x double], [1000 x double]* %2, i64 0, i64 %63
  %65 = load double, double* %64, align 8
  %66 = fadd double %61, %65
  store double %66, double* %3, align 8
  br label %67

67:                                               ; preds = %47
  %68 = load i32, i32* %8, align 4
  %69 = add nsw i32 %68, 1
  store i32 %69, i32* %8, align 4
  br label %40

70:                                               ; preds = %40
  %71 = load double, double* %3, align 8
  store double %71, double* %4, align 8
  %72 = load double, double* %4, align 8
  %73 = call i32 (i8*, ...) @printf(i8* getelementptr inbounds ([7 x i8], [7 x i8]* @.str.1, i64 0, i64 0), double %72)
  br label %74

74:                                               ; preds = %70
  %75 = load i32, i32* %12, align 4
  %76 = add nsw i32 %75, 1
  store i32 %76, i32* %12, align 4
  br label %33

77:                                               ; preds = %33
  ret i32 0
}

declare dso_local i32 @__isoc99_scanf(i8*, ...) #1

declare dso_local i32 @printf(i8*, ...) #1


!llvm.module.flags = !{!0}
!llvm.ident = !{!1}

!0 = !{i32 1, !"wchar_size", i32 4}
!1 = !{!"clang version 10.0.0-4ubuntu1 "}
